; Function Attrs: nounwind uwtable
define range(i64 -64, 1) i64 @ZSTD_DCtx_refPrefix_advanced(ptr noundef captures(none) %0, ptr noundef %1, i64 noundef %2, i32 noundef %3) local_unnamed_addr #0 {
  %5 = getelementptr inbounds nuw i8, ptr %0, i64 30236
  %6 = load i32, ptr %5, align 4, !tbaa !127
  %.not.i = icmp eq i32 %6, 0
  br i1 %.not.i, label %7, label %ZSTD_DCtx_loadDictionary_advanced.exit

7:                                                ; preds = %4
  %8 = getelementptr inbounds nuw i8, ptr %0, i64 30184
  %9 = load ptr, ptr %8, align 8, !tbaa !3
  %10 = tail call i64 @ZSTD_freeDDict(ptr noundef %9) #17
  %11 = getelementptr inbounds nuw i8, ptr %0, i64 30208
  store i32 0, ptr %11, align 8, !tbaa !23
  tail call void @llvm.memset.p0.i64(ptr noundef nonnull align 8 dereferenceable(16) %8, i8 0, i64 16, i1 false)
  %12 = icmp ne ptr %1, null
  %13 = icmp ne i64 %2, 0
  %or.cond.i = and i1 %12, %13
  br i1 %or.cond.i, label %14, label %20

14:                                               ; preds = %7
  %15 = getelementptr inbounds nuw i8, ptr %0, i64 30128
  %16 = tail call ptr @ZSTD_createDDict_advanced(ptr noundef nonnull %1, i64 noundef %2, i32 noundef 1, i32 noundef %3, ptr noundef nonnull byval(%struct.ZSTD_customMem) align 8 %15) #17
  store ptr %16, ptr %8, align 8, !tbaa !3
  %17 = icmp eq ptr %16, null
  br i1 %17, label %ZSTD_DCtx_loadDictionary_advanced.exit, label %18

18:                                               ; preds = %14
  %19 = getelementptr inbounds nuw i8, ptr %0, i64 30192
  store ptr %16, ptr %19, align 8, !tbaa !109
  br label %20

20:                                               ; preds = %18, %7
  store i32 1, ptr %11, align 8, !tbaa !23
  br label %ZSTD_DCtx_loadDictionary_advanced.exit

ZSTD_DCtx_loadDictionary_advanced.exit:           ; preds = %14, %4, %20
  %.1 = phi i64 [ 0, %20 ], [ -60, %4 ], [ -64, %14 ]
  ret i64 %.1
}